; Function Attrs: alwaysinline norecurse nounwind ssp uwtable
define internal void @"_ZN6open3d4core15ParallelForCPU_IZZZNS0_6kernel9ArangeCPUERKNS0_6TensorES5_S5_RS3_ENK3$_0clEvENKUlvE1_clEvEUllE_EEvRKNS0_6DeviceElRKT_.omp_outlined"(ptr noalias noundef readonly captures(none) %0, ptr noalias readnone captures(none) %1, ptr noundef nonnull readonly align 8 captures(none) dereferenceable(8) %2, ptr noundef nonnull readonly align 8 captures(none) dereferenceable(24) %3) #24 personality ptr @__gxx_personality_v0 {
  %5 = alloca i64, align 8
  %6 = alloca i64, align 8
  %7 = alloca i64, align 8
  %8 = alloca i32, align 4
  %9 = load i64, ptr %2, align 8, !tbaa !9
  %10 = icmp sgt i64 %9, 0
  br i1 %10, label %11, label %32

11:                                               ; preds = %4
  %12 = add nsw i64 %9, -1
  call void @llvm.lifetime.start.p0(i64 8, ptr nonnull %5) #25
  store i64 0, ptr %5, align 8, !tbaa !9
  call void @llvm.lifetime.start.p0(i64 8, ptr nonnull %6) #25
  store i64 %12, ptr %6, align 8, !tbaa !9
  call void @llvm.lifetime.start.p0(i64 8, ptr nonnull %7) #25
  store i64 1, ptr %7, align 8, !tbaa !9
  call void @llvm.lifetime.start.p0(i64 4, ptr nonnull %8) #25
  store i32 0, ptr %8, align 4, !tbaa !188
  %13 = load i32, ptr %0, align 4, !tbaa !188
  call void @__kmpc_for_static_init_8(ptr nonnull @1, i32 %13, i32 34, ptr nonnull %8, ptr nonnull %5, ptr nonnull %6, ptr nonnull %7, i64 1, i64 1)
  %14 = load i64, ptr %6, align 8, !tbaa !9
  %15 = call i64 @llvm.smin.i64(i64 %14, i64 %12)
  store i64 %15, ptr %6, align 8, !tbaa !9
  %16 = load i64, ptr %5, align 8, !tbaa !9
  %.not13 = icmp sgt i64 %16, %15
  br i1 %.not13, label %._crit_edge, label %.lr.ph

.lr.ph:                                           ; preds = %11
  %17 = getelementptr inbounds nuw i8, ptr %3, i64 8
  %18 = getelementptr inbounds nuw i8, ptr %3, i64 16
  br label %19

19:                                               ; preds = %.lr.ph, %19
  %.014 = phi i64 [ %16, %.lr.ph ], [ %30, %19 ]
  %20 = load ptr, ptr %17, align 8, !tbaa !686
  %21 = load i8, ptr %20, align 1, !tbaa !11
  %22 = load ptr, ptr %18, align 8, !tbaa !688
  %23 = load i8, ptr %22, align 1, !tbaa !11
  %24 = trunc i64 %.014 to i8
  %25 = mul i8 %23, %24
  %26 = add i8 %25, %21
  %27 = load ptr, ptr %3, align 8, !tbaa !689
  %28 = load ptr, ptr %27, align 8, !tbaa !47
  %29 = getelementptr inbounds i8, ptr %28, i64 %.014
  store i8 %26, ptr %29, align 1, !tbaa !11
  %30 = add nsw i64 %.014, 1
  %31 = load i64, ptr %6, align 8, !tbaa !9
  %.not.not = icmp slt i64 %.014, %31
  br i1 %.not.not, label %19, label %._crit_edge

._crit_edge:                                      ; preds = %19, %11
  call void @__kmpc_for_static_fini(ptr nonnull @1, i32 %13)
  call void @llvm.lifetime.end.p0(i64 4, ptr nonnull %8) #25
  call void @llvm.lifetime.end.p0(i64 8, ptr nonnull %7) #25
  call void @llvm.lifetime.end.p0(i64 8, ptr nonnull %6) #25
  call void @llvm.lifetime.end.p0(i64 8, ptr nonnull %5) #25
  br label %32

32:                                               ; preds = %._crit_edge, %4
  ret void
}